target datalayout = "e-m:e-p270:32:32-p271:32:32-p272:64:64-i64:64-i128:128-f80:128-n8:16:32:64-S128"
target triple = "x86_64-pc-linux-gnu"

%"struct.std::atomic" = type { %"struct.std::__atomic_base" }
%"struct.std::__atomic_base" = type { ptr }
%"struct.std::atomic.1" = type { %"struct.std::__atomic_base.0" }
%"struct.std::__atomic_base.0" = type { ptr }
%"class.absl::debugging_internal::VDSOSupport" = type { %"class.absl::debugging_internal::ElfMemImage" }
%"class.absl::debugging_internal::ElfMemImage" = type { ptr, ptr, ptr, ptr, ptr, i32, i64, i64, i64 }

@_ZN4absl18debugging_internal11ElfMemImage20kInvalidBaseSentinelE = external constant i32, align 4
@_ZN4absl18debugging_internal11VDSOSupport10vdso_base_E = dso_local global %"struct.std::atomic" { %"struct.std::__atomic_base" { ptr @_ZN4absl18debugging_internal11ElfMemImage20kInvalidBaseSentinelE } }, align 8
@_ZN4absl18debugging_internal11VDSOSupport10getcpu_fn_E = dso_local global %"struct.std::atomic.1" { %"struct.std::__atomic_base.0" { ptr @_ZN4absl18debugging_internal11VDSOSupport13InitAndGetCPUEPjPvS3_ } }, align 8
@.str.3 = private unnamed_addr constant [139 x i8] c"generated/home/dtcxzyw/WorkSpace/Projects/compilers/llvm-opt-benchmark/bench/abseil-cpp/abseil-cpp/absl/debugging/internal/vdso_support.cc\00", align 1
@.str.4 = private unnamed_addr constant [20 x i8] c"Check %s failed: %s\00", align 1
@.str.5 = private unnamed_addr constant [54 x i8] c"base != debugging_internal::ElfMemImage::kInvalidBase\00", align 1
@.str.6 = private unnamed_addr constant [15 x i8] c"internal error\00", align 1

; Function Attrs: noinline noreturn nounwind uwtable
define linkonce_odr hidden void @__clang_call_terminate(ptr noundef %0) #8 comdat {
  %2 = call ptr @__cxa_begin_catch(ptr %0) #9
  call void @_ZSt9terminatev() #11
  unreachable
}

; Function Attrs: mustprogress nounwind uwtable
define linkonce_odr dso_local noundef i32 @_ZStanSt12memory_orderSt23__memory_order_modifier(i32 noundef %0, i32 noundef %1) #1 comdat {
  %3 = alloca i32, align 4
  %4 = alloca i32, align 4
  store i32 %0, ptr %3, align 4, !tbaa !16
  store i32 %1, ptr %4, align 4, !tbaa !35
  %5 = load i32, ptr %3, align 4, !tbaa !16
  %6 = load i32, ptr %4, align 4, !tbaa !35
  %7 = and i32 %5, %6
  ret i32 %7
}

; Function Attrs: alwaysinline mustprogress nounwind uwtable
define linkonce_odr dso_local void @_ZNSt13__atomic_baseIPFlPjPvS1_EE5storeES3_St12memory_order(ptr noundef nonnull align 8 dereferenceable(8) %0, ptr noundef %1, i32 noundef %2) #7 comdat align 2 {
  %4 = alloca ptr, align 8
  %5 = alloca ptr, align 8
  %6 = alloca i32, align 4
  %7 = alloca i32, align 4
  %8 = alloca ptr, align 8
  store ptr %0, ptr %4, align 8, !tbaa !37
  store ptr %1, ptr %5, align 8, !tbaa !9
  store i32 %2, ptr %6, align 4, !tbaa !16
  %9 = load ptr, ptr %4, align 8
  call void @llvm.lifetime.start.p0(i64 4, ptr %7) #9
  %10 = load i32, ptr %6, align 4, !tbaa !16
  %11 = call noundef i32 @_ZStanSt12memory_orderSt23__memory_order_modifier(i32 noundef %10, i32 noundef 65535)
  store i32 %11, ptr %7, align 4, !tbaa !16
  br label %12

12:                                               ; preds = %3
  br label %13

13:                                               ; preds = %12
  br label %14

14:                                               ; preds = %13
  br label %15

15:                                               ; preds = %14
  br label %16

16:                                               ; preds = %15
  br label %17

17:                                               ; preds = %16
  br label %18

18:                                               ; preds = %17
  br label %19

19:                                               ; preds = %18
  br label %20

20:                                               ; preds = %19
  %21 = getelementptr inbounds nuw %"struct.std::__atomic_base.0", ptr %9, i32 0, i32 0
  %22 = load i32, ptr %6, align 4, !tbaa !16
  %23 = load ptr, ptr %5, align 8, !tbaa !9
  store ptr %23, ptr %8, align 8, !tbaa !9
  switch i32 %22, label %24 [
    i32 3, label %26
    i32 5, label %28
  ]

24:                                               ; preds = %20
  %25 = load i64, ptr %8, align 8
  store atomic i64 %25, ptr %21 monotonic, align 8
  br label %30

26:                                               ; preds = %20
  %27 = load i64, ptr %8, align 8
  store atomic i64 %27, ptr %21 release, align 8
  br label %30

28:                                               ; preds = %20
  %29 = load i64, ptr %8, align 8
  store atomic i64 %29, ptr %21 seq_cst, align 8
  br label %30

30:                                               ; preds = %28, %26, %24
  call void @llvm.lifetime.end.p0(i64 4, ptr %7) #9
  ret void
}

; Function Attrs: alwaysinline mustprogress nounwind uwtable
define linkonce_odr dso_local void @_ZNSt13__atomic_baseIPKvE5storeES1_St12memory_order(ptr noundef nonnull align 8 dereferenceable(8) %0, ptr noundef %1, i32 noundef %2) #7 comdat align 2 {
  %4 = alloca ptr, align 8
  %5 = alloca ptr, align 8
  %6 = alloca i32, align 4
  %7 = alloca i32, align 4
  %8 = alloca ptr, align 8
  store ptr %0, ptr %4, align 8, !tbaa !33
  store ptr %1, ptr %5, align 8, !tbaa !9
  store i32 %2, ptr %6, align 4, !tbaa !16
  %9 = load ptr, ptr %4, align 8
  call void @llvm.lifetime.start.p0(i64 4, ptr %7) #9
  %10 = load i32, ptr %6, align 4, !tbaa !16
  %11 = call noundef i32 @_ZStanSt12memory_orderSt23__memory_order_modifier(i32 noundef %10, i32 noundef 65535)
  store i32 %11, ptr %7, align 4, !tbaa !16
  br label %12

12:                                               ; preds = %3
  br label %13

13:                                               ; preds = %12
  br label %14

14:                                               ; preds = %13
  br label %15

15:                                               ; preds = %14
  br label %16

16:                                               ; preds = %15
  br label %17

17:                                               ; preds = %16
  br label %18

18:                                               ; preds = %17
  br label %19

19:                                               ; preds = %18
  br label %20

20:                                               ; preds = %19
  %21 = getelementptr inbounds nuw %"struct.std::__atomic_base", ptr %9, i32 0, i32 0
  %22 = load i32, ptr %6, align 4, !tbaa !16
  %23 = load ptr, ptr %5, align 8, !tbaa !9
  store ptr %23, ptr %8, align 8, !tbaa !9
  switch i32 %22, label %24 [
    i32 3, label %26
    i32 5, label %28
  ]

24:                                               ; preds = %20
  %25 = load i64, ptr %8, align 8
  store atomic i64 %25, ptr %21 monotonic, align 8
  br label %30

26:                                               ; preds = %20
  %27 = load i64, ptr %8, align 8
  store atomic i64 %27, ptr %21 release, align 8
  br label %30

28:                                               ; preds = %20
  %29 = load i64, ptr %8, align 8
  store atomic i64 %29, ptr %21 seq_cst, align 8
  br label %30

30:                                               ; preds = %28, %26, %24
  call void @llvm.lifetime.end.p0(i64 4, ptr %7) #9
  ret void
}

; Function Attrs: alwaysinline mustprogress nounwind uwtable
define linkonce_odr dso_local noundef ptr @_ZNKSt13__atomic_baseIPKvE4loadESt12memory_order(ptr noundef nonnull align 8 dereferenceable(8) %0, i32 noundef %1) #7 comdat align 2 personality ptr @__gxx_personality_v0 {
  %3 = alloca ptr, align 8
  %4 = alloca i32, align 4
  %5 = alloca i32, align 4
  %6 = alloca ptr, align 8
  store ptr %0, ptr %3, align 8, !tbaa !33
  store i32 %1, ptr %4, align 4, !tbaa !16
  %7 = load ptr, ptr %3, align 8
  call void @llvm.lifetime.start.p0(i64 4, ptr %5) #9
  %8 = load i32, ptr %4, align 4, !tbaa !16
  %9 = invoke noundef i32 @_ZStanSt12memory_orderSt23__memory_order_modifier(i32 noundef %8, i32 noundef 65535)
          to label %10 unwind label %27

10:                                               ; preds = %2
  store i32 %9, ptr %5, align 4, !tbaa !16
  br label %11

11:                                               ; preds = %10
  br label %12

12:                                               ; preds = %11
  br label %13

13:                                               ; preds = %12
  br label %14

14:                                               ; preds = %13
  br label %15

15:                                               ; preds = %14
  br label %16

16:                                               ; preds = %15
  %17 = getelementptr inbounds nuw %"struct.std::__atomic_base", ptr %7, i32 0, i32 0
  %18 = load i32, ptr %4, align 4, !tbaa !16
  switch i32 %18, label %19 [
    i32 1, label %21
    i32 2, label %21
    i32 5, label %23
  ]

19:                                               ; preds = %16
  %20 = load atomic i64, ptr %17 monotonic, align 8
  store i64 %20, ptr %6, align 8
  br label %25

21:                                               ; preds = %16, %16
  %22 = load atomic i64, ptr %17 acquire, align 8
  store i64 %22, ptr %6, align 8
  br label %25

23:                                               ; preds = %16
  %24 = load atomic i64, ptr %17 seq_cst, align 8
  store i64 %24, ptr %6, align 8
  br label %25

25:                                               ; preds = %23, %21, %19
  %26 = load ptr, ptr %6, align 8, !tbaa !9
  call void @llvm.lifetime.end.p0(i64 4, ptr %5) #9
  ret ptr %26

27:                                               ; preds = %2
  %28 = landingpad { ptr, i32 }
          catch ptr null
  %29 = extractvalue { ptr, i32 } %28, 0
  call void @__clang_call_terminate(ptr %29) #11
  unreachable
}

; Function Attrs: mustprogress nounwind uwtable
define linkonce_odr dso_local void @_ZNSt6atomicIPFlPjPvS1_EE5storeES3_St12memory_order(ptr noundef nonnull align 8 dereferenceable(8) %0, ptr noundef %1, i32 noundef %2) #1 comdat align 2 {
  %4 = alloca ptr, align 8
  %5 = alloca ptr, align 8
  %6 = alloca i32, align 4
  store ptr %0, ptr %4, align 8, !tbaa !28
  store ptr %1, ptr %5, align 8, !tbaa !9
  store i32 %2, ptr %6, align 4, !tbaa !16
  %7 = load ptr, ptr %4, align 8
  %8 = getelementptr inbounds nuw %"struct.std::atomic.1", ptr %7, i32 0, i32 0
  %9 = load ptr, ptr %5, align 8, !tbaa !9
  %10 = load i32, ptr %6, align 4, !tbaa !16
  call void @_ZNSt13__atomic_baseIPFlPjPvS1_EE5storeES3_St12memory_order(ptr noundef nonnull align 8 dereferenceable(8) %8, ptr noundef %9, i32 noundef %10) #9
  ret void
}

; Function Attrs: mustprogress nounwind uwtable
define linkonce_odr dso_local void @_ZNSt6atomicIPKvE5storeES1_St12memory_order(ptr noundef nonnull align 8 dereferenceable(8) %0, ptr noundef %1, i32 noundef %2) #1 comdat align 2 {
  %4 = alloca ptr, align 8
  %5 = alloca ptr, align 8
  %6 = alloca i32, align 4
  store ptr %0, ptr %4, align 8, !tbaa !14
  store ptr %1, ptr %5, align 8, !tbaa !9
  store i32 %2, ptr %6, align 4, !tbaa !16
  %7 = load ptr, ptr %4, align 8
  %8 = getelementptr inbounds nuw %"struct.std::atomic", ptr %7, i32 0, i32 0
  %9 = load ptr, ptr %5, align 8, !tbaa !9
  %10 = load i32, ptr %6, align 4, !tbaa !16
  call void @_ZNSt13__atomic_baseIPKvE5storeES1_St12memory_order(ptr noundef nonnull align 8 dereferenceable(8) %8, ptr noundef %9, i32 noundef %10) #9
  ret void
}

; Function Attrs: mustprogress nounwind uwtable
define linkonce_odr dso_local noundef ptr @_ZNKSt6atomicIPKvE4loadESt12memory_order(ptr noundef nonnull align 8 dereferenceable(8) %0, i32 noundef %1) #1 comdat align 2 {
  %3 = alloca ptr, align 8
  %4 = alloca i32, align 4
  store ptr %0, ptr %3, align 8, !tbaa !14
  store i32 %1, ptr %4, align 4, !tbaa !16
  %5 = load ptr, ptr %3, align 8
  %6 = getelementptr inbounds nuw %"struct.std::atomic", ptr %5, i32 0, i32 0
  %7 = load i32, ptr %4, align 4, !tbaa !16
  %8 = call noundef ptr @_ZNKSt13__atomic_baseIPKvE4loadESt12memory_order(ptr noundef nonnull align 8 dereferenceable(8) %6, i32 noundef %7) #9
  ret ptr %8
}

; Function Attrs: mustprogress uwtable
define dso_local noundef ptr @_ZN4absl18debugging_internal11VDSOSupport7SetBaseEPKv(ptr noundef nonnull align 8 dereferenceable(72) %0, ptr noundef %1) #0 align 2 {
  %3 = alloca ptr, align 8
  %4 = alloca ptr, align 8
  %5 = alloca ptr, align 8
  %6 = alloca ptr, align 8
  store ptr %0, ptr %3, align 8, !tbaa !12
  store ptr %1, ptr %4, align 8, !tbaa !9
  %7 = load ptr, ptr %3, align 8
  br label %8

8:                                                ; preds = %2
  %9 = load ptr, ptr %4, align 8, !tbaa !9
  %10 = icmp ne ptr %9, @_ZN4absl18debugging_internal11ElfMemImage20kInvalidBaseSentinelE
  %11 = xor i1 %10, true
  %12 = zext i1 %11 to i64
  %13 = call i64 @llvm.expect.i64(i64 %12, i64 0)
  %14 = icmp ne i64 %13, 0
  br i1 %14, label %15, label %21

15:                                               ; preds = %8
  br label %16

16:                                               ; preds = %15
  call void @llvm.lifetime.start.p0(i64 8, ptr %5) #9
  store ptr getelementptr (i8, ptr @.str.3, i64 123), ptr %5, align 8, !tbaa !10
  call void (i32, ptr, i32, ptr, ...) @_ZN4absl16raw_log_internal6RawLogENS_11LogSeverityEPKciS3_z(i32 noundef 3, ptr noundef getelementptr (i8, ptr @.str.3, i64 123), i32 noundef 147, ptr noundef @.str.4, ptr noundef @.str.5, ptr noundef @.str.6)
  br label %17

17:                                               ; preds = %16
  unreachable

18:                                               ; No predecessors!
  br label %19

19:                                               ; preds = %18
  call void @llvm.lifetime.end.p0(i64 8, ptr %5) #9
  br label %20

20:                                               ; preds = %19
  br label %21

21:                                               ; preds = %20, %8
  br label %22

22:                                               ; preds = %21
  call void @llvm.lifetime.start.p0(i64 8, ptr %6) #9
  %23 = call noundef ptr @_ZNKSt6atomicIPKvE4loadESt12memory_order(ptr noundef nonnull align 8 dereferenceable(8) @_ZN4absl18debugging_internal11VDSOSupport10vdso_base_E, i32 noundef 0) #9
  store ptr %23, ptr %6, align 8, !tbaa !9
  %24 = load ptr, ptr %4, align 8, !tbaa !9
  call void @_ZNSt6atomicIPKvE5storeES1_St12memory_order(ptr noundef nonnull align 8 dereferenceable(8) @_ZN4absl18debugging_internal11VDSOSupport10vdso_base_E, ptr noundef %24, i32 noundef 0) #9
  %25 = getelementptr inbounds nuw %"class.absl::debugging_internal::VDSOSupport", ptr %7, i32 0, i32 0
  %26 = load ptr, ptr %4, align 8, !tbaa !9
  call void @_ZN4absl18debugging_internal11ElfMemImage4InitEPKv(ptr noundef nonnull align 8 dereferenceable(72) %25, ptr noundef %26)
  call void @_ZNSt6atomicIPFlPjPvS1_EE5storeES3_St12memory_order(ptr noundef nonnull align 8 dereferenceable(8) @_ZN4absl18debugging_internal11VDSOSupport10getcpu_fn_E, ptr noundef @_ZN4absl18debugging_internal11VDSOSupport13InitAndGetCPUEPjPvS3_, i32 noundef 0) #9
  %27 = load ptr, ptr %6, align 8, !tbaa !9
  call void @llvm.lifetime.end.p0(i64 8, ptr %6) #9
  ret ptr %27
}