; Function Attrs: mustprogress uwtable
define dso_local noundef ptr @_ZN4absl18debugging_internal11VDSOSupport7SetBaseEPKv(ptr noundef nonnull align 8 dereferenceable(72) %0, ptr noundef %1) local_unnamed_addr #0 align 2 personality ptr @__gxx_personality_v0 {
  %.not = icmp eq ptr %1, @_ZN4absl18debugging_internal11ElfMemImage20kInvalidBaseSentinelE
  br i1 %.not, label %3, label %4, !prof !4

3:                                                ; preds = %2
  tail call void (i32, ptr, i32, ptr, ...) @_ZN4absl16raw_log_internal6RawLogENS_11LogSeverityEPKciS3_z(i32 noundef 3, ptr noundef nonnull getelementptr inbounds nuw (i8, ptr @.str.3, i64 123), i32 noundef 147, ptr noundef nonnull @.str.4, ptr noundef nonnull @.str.5, ptr noundef nonnull @.str.6)
  unreachable

4:                                                ; preds = %2
  %5 = load atomic i64, ptr @_ZN4absl18debugging_internal11VDSOSupport10vdso_base_E monotonic, align 8
  %.0.i.i = inttoptr i64 %5 to ptr
  %6 = ptrtoint ptr %1 to i64
  store atomic i64 %6, ptr @_ZN4absl18debugging_internal11VDSOSupport10vdso_base_E monotonic, align 8
  tail call void @_ZN4absl18debugging_internal11ElfMemImage4InitEPKv(ptr noundef nonnull align 8 dereferenceable(72) %0, ptr noundef %1)
  store atomic i64 ptrtoint (ptr @_ZN4absl18debugging_internal11VDSOSupport13InitAndGetCPUEPjPvS3_ to i64), ptr @_ZN4absl18debugging_internal11VDSOSupport10getcpu_fn_E monotonic, align 8
  ret ptr %.0.i.i
}